; Function Attrs: mustprogress nofree norecurse nosync nounwind willreturn memory(read, inaccessiblemem: write) uwtable
define dso_local noundef i32 @_ZNK4llvm6object7Archive20getNumberOfECSymbolsEv(ptr noundef nonnull readonly align 8 captures(none) dereferenceable(144) %0) local_unnamed_addr #8 align 2 {
  %2 = getelementptr inbounds nuw i8, ptr %0, i64 72
  %3 = load i64, ptr %2, align 8
  %4 = icmp ult i64 %3, 4
  br i1 %4, label %8, label %5

5:                                                ; preds = %1
  %6 = getelementptr inbounds nuw i8, ptr %0, i64 64
  %7 = load ptr, ptr %6, align 8
  call void @llvm.assume(i1 true) [ "align"(ptr %7, i64 1) ]
  %.0.copyload.i.i.i.i.i.i = load i32, ptr %7, align 1
  br label %8

8:                                                ; preds = %1, %5
  %.0 = phi i32 [ %.0.copyload.i.i.i.i.i.i, %5 ], [ 0, %1 ]
  ret i32 %.0
}